; Function Attrs: mustprogress nofree norecurse nosync nounwind willreturn memory(argmem: write) uwtable
define dso_local void @_ZN21cmCTestGenericHandlerC2Ev(ptr noundef nonnull align 8 dereferenceable(284) %0) unnamed_addr #3 align 2 personality ptr @__gxx_personality_v0 {
  store ptr getelementptr inbounds ({ [8 x ptr] }, ptr @_ZTV21cmCTestGenericHandler, i64 0, i32 0, i64 2), ptr %0, align 8
  %2 = getelementptr inbounds i8, ptr %0, i64 48
  store i32 0, ptr %2, align 8
  %3 = getelementptr inbounds i8, ptr %0, i64 56
  store ptr null, ptr %3, align 8
  %4 = getelementptr inbounds i8, ptr %0, i64 64
  store ptr %2, ptr %4, align 8
  %5 = getelementptr inbounds i8, ptr %0, i64 72
  store ptr %2, ptr %5, align 8
  %6 = getelementptr inbounds i8, ptr %0, i64 80
  store i64 0, ptr %6, align 8
  %7 = getelementptr inbounds i8, ptr %0, i64 96
  store i32 0, ptr %7, align 8
  %8 = getelementptr inbounds i8, ptr %0, i64 104
  store ptr null, ptr %8, align 8
  %9 = getelementptr inbounds i8, ptr %0, i64 112
  store ptr %7, ptr %9, align 8
  %10 = getelementptr inbounds i8, ptr %0, i64 120
  store ptr %7, ptr %10, align 8
  %11 = getelementptr inbounds i8, ptr %0, i64 128
  store i64 0, ptr %11, align 8
  %12 = getelementptr inbounds i8, ptr %0, i64 144
  store i32 0, ptr %12, align 8
  %13 = getelementptr inbounds i8, ptr %0, i64 152
  store ptr null, ptr %13, align 8
  %14 = getelementptr inbounds i8, ptr %0, i64 160
  store ptr %12, ptr %14, align 8
  %15 = getelementptr inbounds i8, ptr %0, i64 168
  store ptr %12, ptr %15, align 8
  %16 = getelementptr inbounds i8, ptr %0, i64 176
  store i64 0, ptr %16, align 8
  %17 = getelementptr inbounds i8, ptr %0, i64 192
  store i32 0, ptr %17, align 8
  %18 = getelementptr inbounds i8, ptr %0, i64 200
  store ptr null, ptr %18, align 8
  %19 = getelementptr inbounds i8, ptr %0, i64 208
  store ptr %17, ptr %19, align 8
  %20 = getelementptr inbounds i8, ptr %0, i64 216
  store ptr %17, ptr %20, align 8
  %21 = getelementptr inbounds i8, ptr %0, i64 224
  store i64 0, ptr %21, align 8
  %22 = getelementptr inbounds i8, ptr %0, i64 240
  store i32 0, ptr %22, align 8
  %23 = getelementptr inbounds i8, ptr %0, i64 248
  store ptr null, ptr %23, align 8
  %24 = getelementptr inbounds i8, ptr %0, i64 256
  store ptr %22, ptr %24, align 8
  %25 = getelementptr inbounds i8, ptr %0, i64 264
  store ptr %22, ptr %25, align 8
  %26 = getelementptr inbounds i8, ptr %0, i64 272
  store i64 0, ptr %26, align 8
  %27 = getelementptr inbounds i8, ptr %0, i64 24
  store i32 0, ptr %27, align 8
  %28 = getelementptr inbounds i8, ptr %0, i64 32
  store ptr null, ptr %28, align 8
  %29 = getelementptr inbounds i8, ptr %0, i64 280
  store i32 0, ptr %29, align 8
  %30 = getelementptr inbounds i8, ptr %0, i64 8
  store i8 0, ptr %30, align 8
  %31 = getelementptr inbounds i8, ptr %0, i64 9
  store i8 0, ptr %31, align 1
  %32 = getelementptr inbounds i8, ptr %0, i64 16
  store i64 0, ptr %32, align 8
  ret void
}